#include <math.h>
#include <stdio.h>
#include <stdlib.h>
#include <string.h>


void main()
{
	char a[5000]={0};
	char *p=a;
	int i=0,flag=0;
	gets(a);
	while(*p!=0)
	{
		i=0;
		while(*p!=32 && *p!=0) 
		{
			i++;
			p++;
		}
		if (i==0);
		else
		{
			if (flag==0) flag=1;
			else printf(",");
			printf("%d",i);
		}
		p++;
	}
}