; ModuleID = 'source-C-CXX/27/133.c'
source_filename = "source-C-CXX/27/133.c"
target datalayout = "e-m:e-p270:32:32-p271:32:32-p272:64:64-i64:64-f80:128-n8:16:32:64-S128"
target triple = "x86_64-pc-linux-gnu"

@.str.1 = private unnamed_addr constant [3 x i8] c"%d\00", align 1

; Function Attrs: nounwind sspstrong uwtable
define dso_local void @main() local_unnamed_addr #0 {
  %1 = alloca [5000 x i8], align 16
  %2 = getelementptr inbounds [5000 x i8], [5000 x i8]* %1, i64 0, i64 0
  call void @llvm.lifetime.start.p0i8(i64 5000, i8* nonnull %2) #6
  call void @llvm.memset.p0i8.i64(i8* noundef nonnull align 16 dereferenceable(5000) %2, i8 0, i64 5000, i1 false)
  %3 = call i32 (i8*, ...) bitcast (i32 (...)* @gets to i32 (i8*, ...)*)(i8* nonnull %2) #6
  %4 = load i8, i8* %2, align 16, !tbaa !5
  %5 = icmp eq i8 %4, 0
  br i1 %5, label %31, label %6

6:                                                ; preds = %0, %26
  %7 = phi i8 [ %29, %26 ], [ %4, %0 ]
  %8 = phi i32 [ %27, %26 ], [ 0, %0 ]
  %9 = phi i8* [ %28, %26 ], [ %2, %0 ]
  br label %10

10:                                               ; preds = %6, %14
  %11 = phi i8 [ %17, %14 ], [ %7, %6 ]
  %12 = phi i8* [ %16, %14 ], [ %9, %6 ]
  %13 = phi i32 [ %15, %14 ], [ 0, %6 ]
  switch i8 %11, label %14 [
    i8 32, label %18
    i8 0, label %18
  ]

14:                                               ; preds = %10
  %15 = add nuw nsw i32 %13, 1
  %16 = getelementptr inbounds i8, i8* %12, i64 1
  %17 = load i8, i8* %16, align 1, !tbaa !5
  br label %10, !llvm.loop !8

18:                                               ; preds = %10, %10
  %19 = icmp eq i32 %13, 0
  br i1 %19, label %26, label %20

20:                                               ; preds = %18
  %21 = icmp eq i32 %8, 0
  br i1 %21, label %24, label %22

22:                                               ; preds = %20
  %23 = call i32 @putchar(i32 44)
  br label %24

24:                                               ; preds = %20, %22
  %25 = call i32 (i8*, ...) @printf(i8* nonnull dereferenceable(1) getelementptr inbounds ([3 x i8], [3 x i8]* @.str.1, i64 0, i64 0), i32 %13)
  br label %26

26:                                               ; preds = %18, %24
  %27 = phi i32 [ %8, %18 ], [ 1, %24 ]
  %28 = getelementptr inbounds i8, i8* %12, i64 1
  %29 = load i8, i8* %28, align 1, !tbaa !5
  %30 = icmp eq i8 %29, 0
  br i1 %30, label %31, label %6, !llvm.loop !10

31:                                               ; preds = %26, %0
  call void @llvm.lifetime.end.p0i8(i64 5000, i8* nonnull %2) #6
  ret void
}

; Function Attrs: argmemonly mustprogress nofree nosync nounwind willreturn
declare void @llvm.lifetime.start.p0i8(i64 immarg, i8* nocapture) #1

; Function Attrs: argmemonly mustprogress nofree nounwind willreturn writeonly
declare void @llvm.memset.p0i8.i64(i8* nocapture writeonly, i8, i64, i1 immarg) #2

declare i32 @gets(...) local_unnamed_addr #3

; Function Attrs: nofree nounwind
declare noundef i32 @printf(i8* nocapture noundef readonly, ...) local_unnamed_addr #4

; Function Attrs: argmemonly mustprogress nofree nosync nounwind willreturn
declare void @llvm.lifetime.end.p0i8(i64 immarg, i8* nocapture) #1

; Function Attrs: nofree nounwind
declare noundef i32 @putchar(i32 noundef) local_unnamed_addr #5


!llvm.module.flags = !{!0, !1, !2, !3}
!llvm.ident = !{!4}

!0 = !{i32 1, !"wchar_size", i32 4}
!1 = !{i32 7, !"PIC Level", i32 2}
!2 = !{i32 7, !"PIE Level", i32 2}
!3 = !{i32 7, !"uwtable", i32 1}
!4 = !{!"clang version 13.0.0"}
!5 = !{!6, !6, i64 0}
!6 = !{!"omnipotent char", !7, i64 0}
!7 = !{!"Simple C/C++ TBAA"}
!8 = distinct !{!8, !9}
!9 = !{!"llvm.loop.mustprogress"}
!10 = distinct !{!10, !9}
